target datalayout = "e-m:e-p270:32:32-p271:32:32-p272:64:64-i64:64-i128:128-f80:128-n8:16:32:64-S128"
target triple = "x86_64-pc-linux-gnu"

%struct._header_field_info = type { ptr, ptr, i32, i32, ptr, i64, ptr, i32, i32, i32, i32, ptr }

; Function Attrs: null_pointer_is_valid sspstrong uwtable
define internal ptr @hf_try_val_to_str(i32 noundef %0, ptr noundef %1) #0 {
  %3 = alloca ptr, align 8
  %4 = alloca i32, align 4
  %5 = alloca ptr, align 8
  store i32 %0, ptr %4, align 4
  store ptr %1, ptr %5, align 8
  %6 = load ptr, ptr %5, align 8
  %7 = getelementptr inbounds nuw %struct._header_field_info, ptr %6, i32 0, i32 3
  %8 = load i32, ptr %7, align 4
  %9 = and i32 %8, 256
  %10 = icmp ne i32 %9, 0
  br i1 %10, label %11, label %17

11:                                               ; preds = %2
  %12 = load i32, ptr %4, align 4
  %13 = load ptr, ptr %5, align 8
  %14 = getelementptr inbounds nuw %struct._header_field_info, ptr %13, i32 0, i32 4
  %15 = load ptr, ptr %14, align 8
  %16 = call ptr @try_rval_to_str(i32 noundef %12, ptr noundef %15)
  store ptr %16, ptr %3, align 8
  br label %73

17:                                               ; preds = %2
  %18 = load ptr, ptr %5, align 8
  %19 = getelementptr inbounds nuw %struct._header_field_info, ptr %18, i32 0, i32 3
  %20 = load i32, ptr %19, align 4
  %21 = and i32 %20, 512
  %22 = icmp ne i32 %21, 0
  br i1 %22, label %23, label %42

23:                                               ; preds = %17
  %24 = load ptr, ptr %5, align 8
  %25 = getelementptr inbounds nuw %struct._header_field_info, ptr %24, i32 0, i32 3
  %26 = load i32, ptr %25, align 4
  %27 = and i32 %26, 1024
  %28 = icmp ne i32 %27, 0
  br i1 %28, label %29, label %36

29:                                               ; preds = %23
  %30 = load i32, ptr %4, align 4
  %31 = zext i32 %30 to i64
  %32 = load ptr, ptr %5, align 8
  %33 = getelementptr inbounds nuw %struct._header_field_info, ptr %32, i32 0, i32 4
  %34 = load ptr, ptr %33, align 8
  %35 = call ptr @try_val64_to_str_ext(i64 noundef %31, ptr noundef %34)
  store ptr %35, ptr %3, align 8
  br label %73

36:                                               ; preds = %23
  %37 = load i32, ptr %4, align 4
  %38 = load ptr, ptr %5, align 8
  %39 = getelementptr inbounds nuw %struct._header_field_info, ptr %38, i32 0, i32 4
  %40 = load ptr, ptr %39, align 8
  %41 = call ptr @try_val_to_str_ext(i32 noundef %37, ptr noundef %40)
  store ptr %41, ptr %3, align 8
  br label %73

42:                                               ; preds = %17
  %43 = load ptr, ptr %5, align 8
  %44 = getelementptr inbounds nuw %struct._header_field_info, ptr %43, i32 0, i32 3
  %45 = load i32, ptr %44, align 4
  %46 = and i32 %45, 1024
  %47 = icmp ne i32 %46, 0
  br i1 %47, label %48, label %55

48:                                               ; preds = %42
  %49 = load i32, ptr %4, align 4
  %50 = zext i32 %49 to i64
  %51 = load ptr, ptr %5, align 8
  %52 = getelementptr inbounds nuw %struct._header_field_info, ptr %51, i32 0, i32 4
  %53 = load ptr, ptr %52, align 8
  %54 = call ptr @try_val64_to_str(i64 noundef %50, ptr noundef %53)
  store ptr %54, ptr %3, align 8
  br label %73

55:                                               ; preds = %42
  %56 = load ptr, ptr %5, align 8
  %57 = getelementptr inbounds nuw %struct._header_field_info, ptr %56, i32 0, i32 3
  %58 = load i32, ptr %57, align 4
  %59 = and i32 %58, 4096
  %60 = icmp ne i32 %59, 0
  br i1 %60, label %61, label %67

61:                                               ; preds = %55
  %62 = load i32, ptr %4, align 4
  %63 = load ptr, ptr %5, align 8
  %64 = getelementptr inbounds nuw %struct._header_field_info, ptr %63, i32 0, i32 4
  %65 = load ptr, ptr %64, align 8
  %66 = call ptr @unit_name_string_get_value(i32 noundef %62, ptr noundef %65)
  store ptr %66, ptr %3, align 8
  br label %73

67:                                               ; preds = %55
  %68 = load i32, ptr %4, align 4
  %69 = load ptr, ptr %5, align 8
  %70 = getelementptr inbounds nuw %struct._header_field_info, ptr %69, i32 0, i32 4
  %71 = load ptr, ptr %70, align 8
  %72 = call ptr @try_val_to_str(i32 noundef %68, ptr noundef %71)
  store ptr %72, ptr %3, align 8
  br label %73

73:                                               ; preds = %67, %61, %48, %36, %29, %11
  %74 = load ptr, ptr %3, align 8
  ret ptr %74
}