; Function Attrs: null_pointer_is_valid sspstrong uwtable
define internal fastcc ptr @hf_try_val_to_str(i32 noundef %0, ptr noundef readonly captures(none) %1) unnamed_addr #0 {
  %3 = getelementptr inbounds nuw i8, ptr %1, i64 20
  %4 = load i32, ptr %3, align 4
  %5 = and i32 %4, 256
  %.not = icmp eq i32 %5, 0
  br i1 %.not, label %10, label %6

6:                                                ; preds = %2
  %7 = getelementptr inbounds nuw i8, ptr %1, i64 24
  %8 = load ptr, ptr %7, align 8
  %9 = tail call ptr @try_rval_to_str(i32 noundef %0, ptr noundef %8)
  br label %37

10:                                               ; preds = %2
  %11 = and i32 %4, 512
  %.not17 = icmp eq i32 %11, 0
  %12 = and i32 %4, 1024
  %.not18 = icmp eq i32 %12, 0
  br i1 %.not17, label %23, label %13

13:                                               ; preds = %10
  br i1 %.not18, label %19, label %14

14:                                               ; preds = %13
  %15 = zext i32 %0 to i64
  %16 = getelementptr inbounds nuw i8, ptr %1, i64 24
  %17 = load ptr, ptr %16, align 8
  %18 = tail call ptr @try_val64_to_str_ext(i64 noundef %15, ptr noundef %17)
  br label %37

19:                                               ; preds = %13
  %20 = getelementptr inbounds nuw i8, ptr %1, i64 24
  %21 = load ptr, ptr %20, align 8
  %22 = tail call ptr @try_val_to_str_ext(i32 noundef %0, ptr noundef %21)
  br label %37

23:                                               ; preds = %10
  br i1 %.not18, label %29, label %24

24:                                               ; preds = %23
  %25 = zext i32 %0 to i64
  %26 = getelementptr inbounds nuw i8, ptr %1, i64 24
  %27 = load ptr, ptr %26, align 8
  %28 = tail call ptr @try_val64_to_str(i64 noundef %25, ptr noundef %27)
  br label %37

29:                                               ; preds = %23
  %30 = and i32 %4, 4096
  %.not19 = icmp eq i32 %30, 0
  %31 = getelementptr inbounds nuw i8, ptr %1, i64 24
  %32 = load ptr, ptr %31, align 8
  br i1 %.not19, label %35, label %33

33:                                               ; preds = %29
  %34 = tail call ptr @unit_name_string_get_value(i32 noundef %0, ptr noundef %32)
  br label %37

35:                                               ; preds = %29
  %36 = tail call ptr @try_val_to_str(i32 noundef %0, ptr noundef %32)
  br label %37

37:                                               ; preds = %35, %33, %24, %19, %14, %6
  %.0 = phi ptr [ %9, %6 ], [ %18, %14 ], [ %22, %19 ], [ %28, %24 ], [ %34, %33 ], [ %36, %35 ]
  ret ptr %.0
}